target datalayout = "e-m:e-p270:32:32-p271:32:32-p272:64:64-i64:64-i128:128-f80:128-n8:16:32:64-S128"
target triple = "x86_64-pc-linux-gnu"

%struct.prov_drbg_st = type { ptr, ptr, ptr, ptr, ptr, ptr, ptr, ptr, ptr, ptr, ptr, ptr, ptr, ptr, i32, i16, i32, i64, i64, i64, i64, i64, i64, i64, i32, i32, i64, i64, i32, i32, i32, i64, i32, ptr, ptr, ptr, ptr, ptr, ptr }

; Function Attrs: nounwind uwtable
define internal i32 @drbg_hash_instantiate_wrapper(ptr noundef %0, i32 noundef %1, i32 noundef %2, ptr noundef %3, i64 noundef %4, ptr noundef %5) #0 {
  %7 = alloca i32, align 4
  %8 = alloca ptr, align 8
  %9 = alloca i32, align 4
  %10 = alloca i32, align 4
  %11 = alloca ptr, align 8
  %12 = alloca i64, align 8
  %13 = alloca ptr, align 8
  %14 = alloca ptr, align 8
  %15 = alloca i32, align 4
  %16 = alloca i32, align 4
  store ptr %0, ptr %8, align 8, !tbaa !3
  store i32 %1, ptr %9, align 4, !tbaa !25
  store i32 %2, ptr %10, align 4, !tbaa !25
  store ptr %3, ptr %11, align 8, !tbaa !26
  store i64 %4, ptr %12, align 8, !tbaa !28
  store ptr %5, ptr %13, align 8, !tbaa !29
  call void @llvm.lifetime.start.p0(i64 8, ptr %14) #4
  %17 = load ptr, ptr %8, align 8, !tbaa !3
  store ptr %17, ptr %14, align 8, !tbaa !9
  call void @llvm.lifetime.start.p0(i64 4, ptr %15) #4
  store i32 0, ptr %15, align 4, !tbaa !25
  %18 = load ptr, ptr %14, align 8, !tbaa !9
  %19 = getelementptr inbounds nuw %struct.prov_drbg_st, ptr %18, i32 0, i32 0
  %20 = load ptr, ptr %19, align 8, !tbaa !31
  %21 = icmp ne ptr %20, null
  br i1 %21, label %22, label %29

22:                                               ; preds = %6
  %23 = load ptr, ptr %14, align 8, !tbaa !9
  %24 = getelementptr inbounds nuw %struct.prov_drbg_st, ptr %23, i32 0, i32 0
  %25 = load ptr, ptr %24, align 8, !tbaa !31
  %26 = call i32 @CRYPTO_THREAD_write_lock(ptr noundef %25)
  %27 = icmp ne i32 %26, 0
  br i1 %27, label %29, label %28

28:                                               ; preds = %22
  store i32 0, ptr %7, align 4
  store i32 1, ptr %16, align 4
  br label %57

29:                                               ; preds = %22, %6
  %30 = call i32 @ossl_prov_is_running()
  %31 = icmp ne i32 %30, 0
  br i1 %31, label %32, label %37

32:                                               ; preds = %29
  %33 = load ptr, ptr %14, align 8, !tbaa !9
  %34 = load ptr, ptr %13, align 8, !tbaa !29
  %35 = call i32 @drbg_hash_set_ctx_params_locked(ptr noundef %33, ptr noundef %34)
  %36 = icmp ne i32 %35, 0
  br i1 %36, label %38, label %37

37:                                               ; preds = %32, %29
  br label %45

38:                                               ; preds = %32
  %39 = load ptr, ptr %14, align 8, !tbaa !9
  %40 = load i32, ptr %9, align 4, !tbaa !25
  %41 = load i32, ptr %10, align 4, !tbaa !25
  %42 = load ptr, ptr %11, align 8, !tbaa !26
  %43 = load i64, ptr %12, align 8, !tbaa !28
  %44 = call i32 @ossl_prov_drbg_instantiate(ptr noundef %39, i32 noundef %40, i32 noundef %41, ptr noundef %42, i64 noundef %43)
  store i32 %44, ptr %15, align 4, !tbaa !25
  br label %45

45:                                               ; preds = %38, %37
  %46 = load ptr, ptr %14, align 8, !tbaa !9
  %47 = getelementptr inbounds nuw %struct.prov_drbg_st, ptr %46, i32 0, i32 0
  %48 = load ptr, ptr %47, align 8, !tbaa !31
  %49 = icmp ne ptr %48, null
  br i1 %49, label %50, label %55

50:                                               ; preds = %45
  %51 = load ptr, ptr %14, align 8, !tbaa !9
  %52 = getelementptr inbounds nuw %struct.prov_drbg_st, ptr %51, i32 0, i32 0
  %53 = load ptr, ptr %52, align 8, !tbaa !31
  %54 = call i32 @CRYPTO_THREAD_unlock(ptr noundef %53)
  br label %55

55:                                               ; preds = %50, %45
  %56 = load i32, ptr %15, align 4, !tbaa !25
  store i32 %56, ptr %7, align 4
  store i32 1, ptr %16, align 4
  br label %57

57:                                               ; preds = %55, %28
  call void @llvm.lifetime.end.p0(i64 4, ptr %15) #4
  call void @llvm.lifetime.end.p0(i64 8, ptr %14) #4
  %58 = load i32, ptr %7, align 4
  ret i32 %58
}