; Function Attrs: nounwind uwtable
define internal i32 @drbg_hash_instantiate_wrapper(ptr noundef %0, i32 noundef %1, i32 noundef %2, ptr noundef %3, i64 noundef %4, ptr noundef %5) #0 {
  %7 = load ptr, ptr %0, align 8, !tbaa !18
  %.not = icmp eq ptr %7, null
  br i1 %.not, label %10, label %8

8:                                                ; preds = %6
  %9 = tail call i32 @CRYPTO_THREAD_write_lock(ptr noundef nonnull %7) #6
  %.not16 = icmp eq i32 %9, 0
  br i1 %.not16, label %20, label %10

10:                                               ; preds = %8, %6
  %11 = tail call i32 @ossl_prov_is_running() #6
  %.not17 = icmp eq i32 %11, 0
  br i1 %.not17, label %16, label %12

12:                                               ; preds = %10
  %13 = tail call fastcc i32 @drbg_hash_set_ctx_params_locked(ptr noundef nonnull %0, ptr noundef %5)
  %.not18 = icmp eq i32 %13, 0
  br i1 %.not18, label %16, label %14

14:                                               ; preds = %12
  %15 = tail call i32 @ossl_prov_drbg_instantiate(ptr noundef nonnull %0, i32 noundef %1, i32 noundef %2, ptr noundef %3, i64 noundef %4) #6
  br label %16

16:                                               ; preds = %10, %12, %14
  %.0 = phi i32 [ %15, %14 ], [ 0, %12 ], [ 0, %10 ]
  %17 = load ptr, ptr %0, align 8, !tbaa !18
  %.not19 = icmp eq ptr %17, null
  br i1 %.not19, label %20, label %18

18:                                               ; preds = %16
  %19 = tail call i32 @CRYPTO_THREAD_unlock(ptr noundef nonnull %17) #6
  br label %20

20:                                               ; preds = %16, %18, %8
  %.013 = phi i32 [ 0, %8 ], [ %.0, %18 ], [ %.0, %16 ]
  ret i32 %.013
}